; Function Attrs: mustprogress nounwind uwtable
define hidden void @_ZN4llvh18raw_string_ostreamD0Ev(ptr noundef nonnull align 8 dereferenceable(48) %this) unnamed_addr #0 align 2 {
entry:
  store ptr getelementptr inbounds ({ [13 x ptr] }, ptr @_ZTVN4llvh18raw_string_ostreamE, i64 0, i32 0, i64 2), ptr %this, align 8
  %OutBufCur.i.i = getelementptr inbounds i8, ptr %this, i64 24
  %0 = load ptr, ptr %OutBufCur.i.i, align 8
  %OutBufStart.i.i = getelementptr inbounds i8, ptr %this, i64 8
  %1 = load ptr, ptr %OutBufStart.i.i, align 8
  %cmp.not.i.i = icmp eq ptr %0, %1
  br i1 %cmp.not.i.i, label %_ZN4llvh11raw_ostream5flushEv.exit.i, label %if.then.i.i

if.then.i.i:                                      ; preds = %entry
  %sub.ptr.lhs.cast.i.i.i = ptrtoint ptr %0 to i64
  %sub.ptr.rhs.cast.i.i.i = ptrtoint ptr %1 to i64
  %sub.ptr.sub.i.i.i = sub i64 %sub.ptr.lhs.cast.i.i.i, %sub.ptr.rhs.cast.i.i.i
  store ptr %1, ptr %OutBufCur.i.i, align 8
  %OS.i.i = getelementptr inbounds i8, ptr %this, i64 40
  %2 = load ptr, ptr %OS.i.i, align 8
  %call.i.i = tail call noundef nonnull align 8 dereferenceable(32) ptr @_ZNSt7__cxx1112basic_stringIcSt11char_traitsIcESaIcEE6appendEPKcm(ptr noundef nonnull align 8 dereferenceable(32) %2, ptr noundef %1, i64 noundef %sub.ptr.sub.i.i.i) #26
  br label %_ZN4llvh11raw_ostream5flushEv.exit.i

_ZN4llvh11raw_ostream5flushEv.exit.i:             ; preds = %if.then.i.i, %entry
  store ptr getelementptr inbounds ({ [13 x ptr] }, ptr @_ZTVN4llvh11raw_ostreamE, i64 0, i32 0, i64 2), ptr %this, align 8
  %BufferMode.i.i = getelementptr inbounds i8, ptr %this, i64 32
  %3 = load i32, ptr %BufferMode.i.i, align 8
  %cmp.i.i = icmp eq i32 %3, 1
  br i1 %cmp.i.i, label %if.then.i1.i, label %_ZN4llvh18raw_string_ostreamD2Ev.exit

if.then.i1.i:                                     ; preds = %_ZN4llvh11raw_ostream5flushEv.exit.i
  %4 = load ptr, ptr %OutBufStart.i.i, align 8
  %isnull.i.i = icmp eq ptr %4, null
  br i1 %isnull.i.i, label %_ZN4llvh18raw_string_ostreamD2Ev.exit, label %delete.notnull.i.i

delete.notnull.i.i:                               ; preds = %if.then.i1.i
  tail call void @_ZdaPv(ptr noundef nonnull %4) #24
  br label %_ZN4llvh18raw_string_ostreamD2Ev.exit

_ZN4llvh18raw_string_ostreamD2Ev.exit:            ; preds = %_ZN4llvh11raw_ostream5flushEv.exit.i, %if.then.i1.i, %delete.notnull.i.i
  tail call void @_ZdlPv(ptr noundef nonnull %this) #24
  ret void
}